target datalayout = "e-m:e-p270:32:32-p271:32:32-p272:64:64-i64:64-i128:128-f80:128-n8:16:32:64-S128"
target triple = "x86_64-pc-linux-gnu"

%struct.MemoryManager = type { ptr, ptr, ptr }

; Function Attrs: nounwind uwtable
define hidden void @BrotliInitMemoryManager(ptr noundef %0, ptr noundef %1, ptr noundef %2, ptr noundef %3) #0 {
  %5 = alloca ptr, align 8
  %6 = alloca ptr, align 8
  %7 = alloca ptr, align 8
  %8 = alloca ptr, align 8
  store ptr %0, ptr %5, align 8, !tbaa !3
  store ptr %1, ptr %6, align 8, !tbaa !8
  store ptr %2, ptr %7, align 8, !tbaa !8
  store ptr %3, ptr %8, align 8, !tbaa !8
  %9 = load ptr, ptr %6, align 8, !tbaa !8
  %10 = icmp ne ptr %9, null
  br i1 %10, label %18, label %11

11:                                               ; preds = %4
  %12 = load ptr, ptr %5, align 8, !tbaa !3
  %13 = getelementptr inbounds nuw %struct.MemoryManager, ptr %12, i32 0, i32 0
  store ptr @BrotliDefaultAllocFunc, ptr %13, align 8, !tbaa !9
  %14 = load ptr, ptr %5, align 8, !tbaa !3
  %15 = getelementptr inbounds nuw %struct.MemoryManager, ptr %14, i32 0, i32 1
  store ptr @BrotliDefaultFreeFunc, ptr %15, align 8, !tbaa !11
  %16 = load ptr, ptr %5, align 8, !tbaa !3
  %17 = getelementptr inbounds nuw %struct.MemoryManager, ptr %16, i32 0, i32 2
  store ptr null, ptr %17, align 8, !tbaa !12
  br label %28

18:                                               ; preds = %4
  %19 = load ptr, ptr %6, align 8, !tbaa !8
  %20 = load ptr, ptr %5, align 8, !tbaa !3
  %21 = getelementptr inbounds nuw %struct.MemoryManager, ptr %20, i32 0, i32 0
  store ptr %19, ptr %21, align 8, !tbaa !9
  %22 = load ptr, ptr %7, align 8, !tbaa !8
  %23 = load ptr, ptr %5, align 8, !tbaa !3
  %24 = getelementptr inbounds nuw %struct.MemoryManager, ptr %23, i32 0, i32 1
  store ptr %22, ptr %24, align 8, !tbaa !11
  %25 = load ptr, ptr %8, align 8, !tbaa !8
  %26 = load ptr, ptr %5, align 8, !tbaa !3
  %27 = getelementptr inbounds nuw %struct.MemoryManager, ptr %26, i32 0, i32 2
  store ptr %25, ptr %27, align 8, !tbaa !12
  br label %28

28:                                               ; preds = %18, %11
  ret void
}

declare ptr @BrotliDefaultAllocFunc(ptr noundef, i64 noundef) #1

declare void @BrotliDefaultFreeFunc(ptr noundef, ptr noundef) #1

; Function Attrs: nounwind uwtable
define hidden ptr @BrotliAllocate(ptr noundef %0, i64 noundef %1) #0 {
  %3 = alloca ptr, align 8
  %4 = alloca i64, align 8
  %5 = alloca ptr, align 8
  store ptr %0, ptr %3, align 8, !tbaa !3
  store i64 %1, ptr %4, align 8, !tbaa !13
  call void @llvm.lifetime.start.p0(i64 8, ptr %5) #5
  %6 = load ptr, ptr %3, align 8, !tbaa !3
  %7 = getelementptr inbounds nuw %struct.MemoryManager, ptr %6, i32 0, i32 0
  %8 = load ptr, ptr %7, align 8, !tbaa !9
  %9 = load ptr, ptr %3, align 8, !tbaa !3
  %10 = getelementptr inbounds nuw %struct.MemoryManager, ptr %9, i32 0, i32 2
  %11 = load ptr, ptr %10, align 8, !tbaa !12
  %12 = load i64, ptr %4, align 8, !tbaa !13
  %13 = call ptr %8(ptr noundef %11, i64 noundef %12)
  store ptr %13, ptr %5, align 8, !tbaa !8
  %14 = load ptr, ptr %5, align 8, !tbaa !8
  %15 = icmp ne ptr %14, null
  br i1 %15, label %17, label %16

16:                                               ; preds = %2
  call void @exit(i32 noundef 1) #6
  unreachable

17:                                               ; preds = %2
  %18 = load ptr, ptr %5, align 8, !tbaa !8
  call void @llvm.lifetime.end.p0(i64 8, ptr %5) #5
  ret ptr %18
}

; Function Attrs: nocallback nofree nosync nounwind willreturn memory(argmem: readwrite)
declare void @llvm.lifetime.start.p0(i64 immarg, ptr captures(none)) #2

; Function Attrs: noreturn nounwind
declare void @exit(i32 noundef) #3

; Function Attrs: nocallback nofree nosync nounwind willreturn memory(argmem: readwrite)
declare void @llvm.lifetime.end.p0(i64 immarg, ptr captures(none)) #2

; Function Attrs: nounwind uwtable
define hidden void @BrotliFree(ptr noundef %0, ptr noundef %1) #0 {
  %3 = alloca ptr, align 8
  %4 = alloca ptr, align 8
  store ptr %0, ptr %3, align 8, !tbaa !3
  store ptr %1, ptr %4, align 8, !tbaa !8
  %5 = load ptr, ptr %3, align 8, !tbaa !3
  %6 = getelementptr inbounds nuw %struct.MemoryManager, ptr %5, i32 0, i32 1
  %7 = load ptr, ptr %6, align 8, !tbaa !11
  %8 = load ptr, ptr %3, align 8, !tbaa !3
  %9 = getelementptr inbounds nuw %struct.MemoryManager, ptr %8, i32 0, i32 2
  %10 = load ptr, ptr %9, align 8, !tbaa !12
  %11 = load ptr, ptr %4, align 8, !tbaa !8
  call void %7(ptr noundef %10, ptr noundef %11)
  ret void
}

; Function Attrs: nounwind uwtable
define hidden void @BrotliWipeOutMemoryManager(ptr noundef %0) #0 {
  %2 = alloca ptr, align 8
  store ptr %0, ptr %2, align 8, !tbaa !3
  ret void
}

; Function Attrs: nounwind uwtable
define hidden ptr @BrotliBootstrapAlloc(i64 noundef %0, ptr noundef %1, ptr noundef %2, ptr noundef %3) #0 {
  %5 = alloca ptr, align 8
  %6 = alloca i64, align 8
  %7 = alloca ptr, align 8
  %8 = alloca ptr, align 8
  %9 = alloca ptr, align 8
  store i64 %0, ptr %6, align 8, !tbaa !13
  store ptr %1, ptr %7, align 8, !tbaa !8
  store ptr %2, ptr %8, align 8, !tbaa !8
  store ptr %3, ptr %9, align 8, !tbaa !8
  %10 = load ptr, ptr %7, align 8, !tbaa !8
  %11 = icmp ne ptr %10, null
  br i1 %11, label %18, label %12

12:                                               ; preds = %4
  %13 = load ptr, ptr %8, align 8, !tbaa !8
  %14 = icmp ne ptr %13, null
  br i1 %14, label %18, label %15

15:                                               ; preds = %12
  %16 = load i64, ptr %6, align 8, !tbaa !13
  %17 = call noalias ptr @malloc(i64 noundef %16) #7
  store ptr %17, ptr %5, align 8
  br label %31

18:                                               ; preds = %12, %4
  %19 = load ptr, ptr %7, align 8, !tbaa !8
  %20 = icmp ne ptr %19, null
  br i1 %20, label %21, label %29

21:                                               ; preds = %18
  %22 = load ptr, ptr %8, align 8, !tbaa !8
  %23 = icmp ne ptr %22, null
  br i1 %23, label %24, label %29

24:                                               ; preds = %21
  %25 = load ptr, ptr %7, align 8, !tbaa !8
  %26 = load ptr, ptr %9, align 8, !tbaa !8
  %27 = load i64, ptr %6, align 8, !tbaa !13
  %28 = call ptr %25(ptr noundef %26, i64 noundef %27)
  store ptr %28, ptr %5, align 8
  br label %31

29:                                               ; preds = %21, %18
  br label %30

30:                                               ; preds = %29
  store ptr null, ptr %5, align 8
  br label %31

31:                                               ; preds = %30, %24, %15
  %32 = load ptr, ptr %5, align 8
  ret ptr %32
}

; Function Attrs: nounwind allocsize(0)
declare noalias ptr @malloc(i64 noundef) #4

; Function Attrs: nounwind uwtable
define hidden void @BrotliBootstrapFree(ptr noundef %0, ptr noundef %1) #0 {
  %3 = alloca ptr, align 8
  %4 = alloca ptr, align 8
  %5 = alloca ptr, align 8
  %6 = alloca ptr, align 8
  store ptr %0, ptr %3, align 8, !tbaa !8
  store ptr %1, ptr %4, align 8, !tbaa !3
  %7 = load ptr, ptr %3, align 8, !tbaa !8
  %8 = icmp ne ptr %7, null
  br i1 %8, label %10, label %9

9:                                                ; preds = %2
  br label %20

10:                                               ; preds = %2
  call void @llvm.lifetime.start.p0(i64 8, ptr %5) #5
  %11 = load ptr, ptr %4, align 8, !tbaa !3
  %12 = getelementptr inbounds nuw %struct.MemoryManager, ptr %11, i32 0, i32 1
  %13 = load ptr, ptr %12, align 8, !tbaa !11
  store ptr %13, ptr %5, align 8, !tbaa !8
  call void @llvm.lifetime.start.p0(i64 8, ptr %6) #5
  %14 = load ptr, ptr %4, align 8, !tbaa !3
  %15 = getelementptr inbounds nuw %struct.MemoryManager, ptr %14, i32 0, i32 2
  %16 = load ptr, ptr %15, align 8, !tbaa !12
  store ptr %16, ptr %6, align 8, !tbaa !8
  %17 = load ptr, ptr %5, align 8, !tbaa !8
  %18 = load ptr, ptr %6, align 8, !tbaa !8
  %19 = load ptr, ptr %3, align 8, !tbaa !8
  call void %17(ptr noundef %18, ptr noundef %19)
  call void @llvm.lifetime.end.p0(i64 8, ptr %6) #5
  call void @llvm.lifetime.end.p0(i64 8, ptr %5) #5
  br label %20

20:                                               ; preds = %9, %10
  ret void
}


!llvm.module.flags = !{!0, !1, !2}

!0 = !{i32 1, !"wchar_size", i32 4}
!1 = !{i32 8, !"PIC Level", i32 2}
!2 = !{i32 7, !"uwtable", i32 2}
!3 = !{!4, !4, i64 0}
!4 = !{!"p1 _ZTS13MemoryManager", !5, i64 0}
!5 = !{!"any pointer", !6, i64 0}
!6 = !{!"omnipotent char", !7, i64 0}
!7 = !{!"Simple C/C++ TBAA"}
!8 = !{!5, !5, i64 0}
!9 = !{!10, !5, i64 0}
!10 = !{!"MemoryManager", !5, i64 0, !5, i64 8, !5, i64 16}
!11 = !{!10, !5, i64 8}
!12 = !{!10, !5, i64 16}
!13 = !{!14, !14, i64 0}
!14 = !{!"long", !6, i64 0}
